target datalayout = "e-m:e-p270:32:32-p271:32:32-p272:64:64-i64:64-i128:128-f80:128-n8:16:32:64-S128"
target triple = "x86_64-pc-linux-gnu"

%struct.grpc_slice_buffer = type { ptr, ptr, i64, i64, i64, [6 x %struct.grpc_slice] }
%struct.grpc_slice = type { ptr, %"union.grpc_slice::grpc_slice_data" }
%"union.grpc_slice::grpc_slice_data" = type { %"struct.grpc_slice::grpc_slice_data::grpc_slice_refcounted", [8 x i8] }
%"struct.grpc_slice::grpc_slice_data::grpc_slice_refcounted" = type { i64, ptr }
%"struct.grpc_slice::grpc_slice_data::grpc_slice_inlined" = type { i8, [23 x i8] }
%struct.tsi_fake_zero_copy_grpc_protector = type { %struct.tsi_zero_copy_grpc_protector, %struct.grpc_slice_buffer, %struct.grpc_slice_buffer, i64, i64 }
%struct.tsi_zero_copy_grpc_protector = type { ptr }

; Function Attrs: mustprogress nounwind uwtable
define internal void @_ZL21store32_little_endianjPh(i32 noundef %0, ptr noundef %1) #7 {
  %3 = alloca i32, align 4
  %4 = alloca ptr, align 8
  store i32 %0, ptr %3, align 4, !tbaa !23
  store ptr %1, ptr %4, align 8, !tbaa !12
  %5 = load i32, ptr %3, align 4, !tbaa !23
  %6 = lshr i32 %5, 24
  %7 = and i32 %6, 255
  %8 = trunc i32 %7 to i8
  %9 = load ptr, ptr %4, align 8, !tbaa !12
  %10 = getelementptr inbounds i8, ptr %9, i64 3
  store i8 %8, ptr %10, align 1, !tbaa !20
  %11 = load i32, ptr %3, align 4, !tbaa !23
  %12 = lshr i32 %11, 16
  %13 = and i32 %12, 255
  %14 = trunc i32 %13 to i8
  %15 = load ptr, ptr %4, align 8, !tbaa !12
  %16 = getelementptr inbounds i8, ptr %15, i64 2
  store i8 %14, ptr %16, align 1, !tbaa !20
  %17 = load i32, ptr %3, align 4, !tbaa !23
  %18 = lshr i32 %17, 8
  %19 = and i32 %18, 255
  %20 = trunc i32 %19 to i8
  %21 = load ptr, ptr %4, align 8, !tbaa !12
  %22 = getelementptr inbounds i8, ptr %21, i64 1
  store i8 %20, ptr %22, align 1, !tbaa !20
  %23 = load i32, ptr %3, align 4, !tbaa !23
  %24 = and i32 %23, 255
  %25 = trunc i32 %24 to i8
  %26 = load ptr, ptr %4, align 8, !tbaa !12
  %27 = getelementptr inbounds i8, ptr %26, i64 0
  store i8 %25, ptr %27, align 1, !tbaa !20
  ret void
}

; Function Attrs: inlinehint mustprogress nounwind uwtable
define linkonce_odr noundef nonnull align 8 dereferenceable(8) ptr @_ZSt3minImERKT_S2_S2_(ptr noundef nonnull align 8 dereferenceable(8) %0, ptr noundef nonnull align 8 dereferenceable(8) %1) #12 comdat {
  %3 = alloca ptr, align 8
  %4 = alloca ptr, align 8
  %5 = alloca ptr, align 8
  store ptr %0, ptr %4, align 8, !tbaa !43
  store ptr %1, ptr %5, align 8, !tbaa !43
  %6 = load ptr, ptr %5, align 8, !tbaa !43
  %7 = load i64, ptr %6, align 8, !tbaa !14
  %8 = load ptr, ptr %4, align 8, !tbaa !43
  %9 = load i64, ptr %8, align 8, !tbaa !14
  %10 = icmp ult i64 %7, %9
  br i1 %10, label %11, label %13

11:                                               ; preds = %2
  %12 = load ptr, ptr %5, align 8, !tbaa !43
  store ptr %12, ptr %3, align 8
  br label %15

13:                                               ; preds = %2
  %14 = load ptr, ptr %4, align 8, !tbaa !43
  store ptr %14, ptr %3, align 8
  br label %15

15:                                               ; preds = %13, %11
  %16 = load ptr, ptr %3, align 8
  ret ptr %16
}

; Function Attrs: mustprogress uwtable
define internal noundef i32 @_ZL37fake_zero_copy_grpc_protector_protectP28tsi_zero_copy_grpc_protectorP17grpc_slice_bufferS2_(ptr noundef %0, ptr noundef %1, ptr noundef %2) #4 {
  %4 = alloca i32, align 4
  %5 = alloca ptr, align 8
  %6 = alloca ptr, align 8
  %7 = alloca ptr, align 8
  %8 = alloca ptr, align 8
  %9 = alloca i64, align 8
  %10 = alloca i64, align 8
  %11 = alloca %struct.grpc_slice, align 8
  %12 = alloca %struct.grpc_slice, align 8
  %13 = alloca i64, align 8
  store ptr %0, ptr %5, align 8, !tbaa !172
  store ptr %1, ptr %6, align 8, !tbaa !3
  store ptr %2, ptr %7, align 8, !tbaa !3
  %14 = load ptr, ptr %5, align 8, !tbaa !172
  %15 = icmp eq ptr %14, null
  br i1 %15, label %22, label %16

16:                                               ; preds = %3
  %17 = load ptr, ptr %6, align 8, !tbaa !3
  %18 = icmp eq ptr %17, null
  br i1 %18, label %22, label %19

19:                                               ; preds = %16
  %20 = load ptr, ptr %7, align 8, !tbaa !3
  %21 = icmp eq ptr %20, null
  br i1 %21, label %22, label %23

22:                                               ; preds = %19, %16, %3
  store i32 2, ptr %4, align 4
  br label %61

23:                                               ; preds = %19
  call void @llvm.lifetime.start.p0(i64 8, ptr %8) #3
  %24 = load ptr, ptr %5, align 8, !tbaa !172
  store ptr %24, ptr %8, align 8, !tbaa !52
  br label %25

25:                                               ; preds = %52, %23
  %26 = load ptr, ptr %6, align 8, !tbaa !3
  %27 = getelementptr inbounds nuw %struct.grpc_slice_buffer, ptr %26, i32 0, i32 4
  %28 = load i64, ptr %27, align 8, !tbaa !8
  %29 = icmp ugt i64 %28, 0
  br i1 %29, label %30, label %60

30:                                               ; preds = %25
  call void @llvm.lifetime.start.p0(i64 8, ptr %9) #3
  %31 = load ptr, ptr %8, align 8, !tbaa !52
  %32 = getelementptr inbounds nuw %struct.tsi_fake_zero_copy_grpc_protector, ptr %31, i32 0, i32 3
  call void @llvm.lifetime.start.p0(i64 8, ptr %10) #3
  %33 = load ptr, ptr %6, align 8, !tbaa !3
  %34 = getelementptr inbounds nuw %struct.grpc_slice_buffer, ptr %33, i32 0, i32 4
  %35 = load i64, ptr %34, align 8, !tbaa !8
  %36 = add i64 %35, 4
  store i64 %36, ptr %10, align 8, !tbaa !14
  %37 = call noundef nonnull align 8 dereferenceable(8) ptr @_ZSt3minImERKT_S2_S2_(ptr noundef nonnull align 8 dereferenceable(8) %32, ptr noundef nonnull align 8 dereferenceable(8) %10)
  %38 = load i64, ptr %37, align 8, !tbaa !14
  call void @llvm.lifetime.end.p0(i64 8, ptr %10) #3
  store i64 %38, ptr %9, align 8, !tbaa !14
  call void @llvm.lifetime.start.p0(i64 32, ptr %11) #3
  call void @grpc_slice_malloc(ptr dead_on_unwind writable sret(%struct.grpc_slice) align 8 %11, i64 noundef 4)
  %39 = load i64, ptr %9, align 8, !tbaa !14
  %40 = trunc i64 %39 to i32
  %41 = getelementptr inbounds nuw %struct.grpc_slice, ptr %11, i32 0, i32 0
  %42 = load ptr, ptr %41, align 8, !tbaa !17
  %43 = icmp ne ptr %42, null
  br i1 %43, label %44, label %48

44:                                               ; preds = %30
  %45 = getelementptr inbounds nuw %struct.grpc_slice, ptr %11, i32 0, i32 1
  %46 = getelementptr inbounds nuw %"struct.grpc_slice::grpc_slice_data::grpc_slice_refcounted", ptr %45, i32 0, i32 1
  %47 = load ptr, ptr %46, align 8, !tbaa !20
  br label %52

48:                                               ; preds = %30
  %49 = getelementptr inbounds nuw %struct.grpc_slice, ptr %11, i32 0, i32 1
  %50 = getelementptr inbounds nuw %"struct.grpc_slice::grpc_slice_data::grpc_slice_inlined", ptr %49, i32 0, i32 1
  %51 = getelementptr inbounds [23 x i8], ptr %50, i64 0, i64 0
  br label %52

52:                                               ; preds = %48, %44
  %53 = phi ptr [ %47, %44 ], [ %51, %48 ]
  call void @_ZL21store32_little_endianjPh(i32 noundef %40, ptr noundef %53)
  %54 = load ptr, ptr %7, align 8, !tbaa !3
  call void @llvm.memcpy.p0.p0.i64(ptr align 8 %12, ptr align 8 %11, i64 32, i1 false), !tbaa.struct !178
  call void @grpc_slice_buffer_add(ptr noundef %54, ptr noundef byval(%struct.grpc_slice) align 8 %12)
  call void @llvm.lifetime.start.p0(i64 8, ptr %13) #3
  %55 = load i64, ptr %9, align 8, !tbaa !14
  %56 = sub i64 %55, 4
  store i64 %56, ptr %13, align 8, !tbaa !14
  %57 = load ptr, ptr %6, align 8, !tbaa !3
  %58 = load i64, ptr %13, align 8, !tbaa !14
  %59 = load ptr, ptr %7, align 8, !tbaa !3
  call void @grpc_slice_buffer_move_first(ptr noundef %57, i64 noundef %58, ptr noundef %59)
  call void @llvm.lifetime.end.p0(i64 8, ptr %13) #3
  call void @llvm.lifetime.end.p0(i64 32, ptr %11) #3
  call void @llvm.lifetime.end.p0(i64 8, ptr %9) #3
  br label %25, !llvm.loop !180

60:                                               ; preds = %25
  store i32 0, ptr %4, align 4
  call void @llvm.lifetime.end.p0(i64 8, ptr %8) #3
  br label %61

61:                                               ; preds = %60, %22
  %62 = load i32, ptr %4, align 4
  ret i32 %62
}