; Function Attrs: mustprogress uwtable
define internal noundef range(i32 0, 3) i32 @_ZL37fake_zero_copy_grpc_protector_protectP28tsi_zero_copy_grpc_protectorP17grpc_slice_bufferS2_(ptr noundef readonly %0, ptr noundef %1, ptr noundef %2) #3 {
  %4 = alloca %struct.grpc_slice, align 8
  %5 = icmp eq ptr %0, null
  %6 = icmp eq ptr %1, null
  %or.cond = or i1 %5, %6
  %7 = icmp eq ptr %2, null
  %or.cond3 = or i1 %or.cond, %7
  br i1 %or.cond3, label %.loopexit, label %.preheader

.preheader:                                       ; preds = %3
  %8 = getelementptr inbounds nuw i8, ptr %1, i64 32
  %9 = load i64, ptr %8, align 8, !tbaa !4
  %.not28 = icmp eq i64 %9, 0
  br i1 %.not28, label %.loopexit, label %.lr.ph

.lr.ph:                                           ; preds = %.preheader
  %10 = getelementptr inbounds nuw i8, ptr %0, i64 472
  %11 = getelementptr inbounds nuw i8, ptr %4, i64 16
  %12 = getelementptr inbounds nuw i8, ptr %4, i64 9
  %.sroa.gep = getelementptr inbounds nuw i8, ptr %4, i64 12
  %.sroa.gep21 = getelementptr inbounds nuw i8, ptr %4, i64 11
  %.sroa.gep24 = getelementptr inbounds nuw i8, ptr %4, i64 10
  br label %13

13:                                               ; preds = %.lr.ph, %13
  %14 = phi i64 [ %9, %.lr.ph ], [ %28, %13 ]
  %15 = add i64 %14, 4
  %16 = load i64, ptr %10, align 8, !tbaa !40
  %.sroa.speculated = call i64 @llvm.umin.i64(i64 %15, i64 %16)
  call void @llvm.lifetime.start.p0(i64 32, ptr nonnull %4) #20
  call void @grpc_slice_malloc(ptr dead_on_unwind nonnull writable sret(%struct.grpc_slice) align 8 %4, i64 noundef 4)
  %17 = load ptr, ptr %4, align 8, !tbaa !13
  %.not19 = icmp eq ptr %17, null
  %18 = load ptr, ptr %11, align 8
  %19 = select i1 %.not19, ptr %12, ptr %18
  %20 = lshr i64 %.sroa.speculated, 24
  %21 = trunc i64 %20 to i8
  %.sroa.gep20 = getelementptr inbounds nuw i8, ptr %18, i64 3
  %.sroa.sel = select i1 %.not19, ptr %.sroa.gep, ptr %.sroa.gep20
  store i8 %21, ptr %.sroa.sel, align 1, !tbaa !16
  %22 = lshr i64 %.sroa.speculated, 16
  %23 = trunc i64 %22 to i8
  %.sroa.gep22 = getelementptr inbounds nuw i8, ptr %18, i64 2
  %.sroa.sel23 = select i1 %.not19, ptr %.sroa.gep21, ptr %.sroa.gep22
  store i8 %23, ptr %.sroa.sel23, align 1, !tbaa !16
  %24 = lshr i64 %.sroa.speculated, 8
  %25 = trunc i64 %24 to i8
  %.sroa.gep25 = getelementptr inbounds nuw i8, ptr %18, i64 1
  %.sroa.sel26 = select i1 %.not19, ptr %.sroa.gep24, ptr %.sroa.gep25
  store i8 %25, ptr %.sroa.sel26, align 1, !tbaa !16
  %26 = trunc i64 %.sroa.speculated to i8
  store i8 %26, ptr %19, align 1, !tbaa !16
  call void @grpc_slice_buffer_add(ptr noundef nonnull %2, ptr noundef nonnull byval(%struct.grpc_slice) align 8 %4)
  %27 = add i64 %.sroa.speculated, -4
  call void @grpc_slice_buffer_move_first(ptr noundef nonnull %1, i64 noundef %27, ptr noundef nonnull %2)
  call void @llvm.lifetime.end.p0(i64 32, ptr nonnull %4) #20
  %28 = load i64, ptr %8, align 8, !tbaa !4
  %.not = icmp eq i64 %28, 0
  br i1 %.not, label %.loopexit, label %13, !llvm.loop !85

.loopexit:                                        ; preds = %13, %.preheader, %3
  %.0 = phi i32 [ 2, %3 ], [ 0, %.preheader ], [ 0, %13 ]
  ret i32 %.0
}